; Function Attrs: mustprogress nounwind uwtable
define dso_local void @_ZN5clang6format17WhitespaceManager17replaceWhitespaceERNS0_11FormatTokenEjjjbb(ptr noundef nonnull align 8 dereferenceable(2257) %0, ptr noundef nonnull align 8 dereferenceable(305) %1, i32 noundef %2, i32 noundef %3, i32 noundef %4, i1 noundef zeroext %5, i1 noundef zeroext %6) local_unnamed_addr #0 align 2 {
  %8 = alloca %"struct.clang::format::WhitespaceManager::Change", align 8
  %9 = alloca %"class.llvm::StringRef", align 8
  %10 = alloca %"class.llvm::StringRef", align 8
  %11 = getelementptr inbounds nuw i8, ptr %1, i64 65
  %12 = load i16, ptr %11, align 1
  %13 = and i16 %12, 16
  %.not = icmp eq i16 %13, 0
  br i1 %.not, label %14, label %46

14:                                               ; preds = %7
  %15 = getelementptr inbounds nuw i8, ptr %1, i64 256
  %16 = getelementptr inbounds i8, ptr %1, i64 296
  %17 = load i8, ptr %16, align 8
  %18 = trunc i8 %17 to i1
  %19 = load i32, ptr %15, align 8
  %20 = icmp eq i32 %19, 0
  %or.cond = select i1 %18, i1 %20, i1 false
  br i1 %or.cond, label %46, label %21

21:                                               ; preds = %14
  %.not13 = icmp eq i32 %2, 0
  %22 = select i1 %.not13, i16 512, i16 1024
  %23 = and i16 %12, -1553
  %24 = or disjoint i16 %23, %22
  store i16 %24, ptr %11, align 1
  %25 = getelementptr inbounds nuw i8, ptr %1, i64 56
  %.sroa.0.0.copyload = load i64, ptr %25, align 8
  store ptr @.str, ptr %9, align 8
  %26 = getelementptr inbounds nuw i8, ptr %9, i64 8
  store i64 0, ptr %26, align 8
  store ptr @.str, ptr %10, align 8
  %27 = getelementptr inbounds nuw i8, ptr %10, i64 8
  store i64 0, ptr %27, align 8
  %28 = getelementptr inbounds nuw i8, ptr %1, i64 64
  %29 = load i8, ptr %28, align 8
  %30 = and i8 %29, 4
  %.not14 = icmp eq i8 %30, 0
  %31 = select i1 %6, i1 %.not14, i1 false
  call void @_ZN5clang6format17WhitespaceManager6ChangeC1ERKNS0_11FormatTokenEbNS_11SourceRangeEijjN4llvm9StringRefES8_bbb(ptr noundef nonnull align 8 dereferenceable(136) %8, ptr noundef nonnull align 8 dereferenceable(305) %1, i1 noundef zeroext true, i64 %.sroa.0.0.copyload, i32 noundef %3, i32 noundef %4, i32 noundef %2, ptr noundef nonnull byval(%"class.llvm::StringRef") align 8 %9, ptr noundef nonnull byval(%"class.llvm::StringRef") align 8 %10, i1 noundef zeroext %5, i1 noundef zeroext %31, i1 noundef zeroext false) #18
  %32 = call noundef ptr @_ZN4llvm25SmallVectorTemplateCommonIN5clang6format17WhitespaceManager6ChangeEvE32reserveForParamAndGetAddressImplINS_23SmallVectorTemplateBaseIS4_Lb0EEEEEPKS4_PT_RS9_m(ptr noundef nonnull %0, ptr noundef nonnull align 8 dereferenceable(136) %8, i64 noundef 1)
  %33 = load ptr, ptr %0, align 8
  %34 = call noundef i64 @_ZNK4llvm15SmallVectorBaseIjE4sizeEv(ptr noundef nonnull align 8 dereferenceable(16) %0) #18
  %35 = getelementptr inbounds %"struct.clang::format::WhitespaceManager::Change", ptr %33, i64 %34
  call void @llvm.memcpy.p0.p0.i64(ptr noundef nonnull align 8 dereferenceable(28) %35, ptr noundef nonnull align 8 dereferenceable(28) %32, i64 28, i1 false)
  %36 = getelementptr inbounds nuw i8, ptr %35, i64 32
  %37 = getelementptr inbounds nuw i8, ptr %32, i64 32
  call void @_ZNSt7__cxx1112basic_stringIcSt11char_traitsIcESaIcEEC1EOS4_(ptr noundef nonnull align 8 dereferenceable(32) %36, ptr noundef nonnull align 8 dereferenceable(32) %37) #18
  %38 = getelementptr inbounds nuw i8, ptr %35, i64 64
  %39 = getelementptr inbounds nuw i8, ptr %32, i64 64
  call void @_ZNSt7__cxx1112basic_stringIcSt11char_traitsIcESaIcEEC1EOS4_(ptr noundef nonnull align 8 dereferenceable(32) %38, ptr noundef nonnull align 8 dereferenceable(32) %39) #18
  %40 = getelementptr inbounds nuw i8, ptr %35, i64 96
  %41 = getelementptr inbounds nuw i8, ptr %32, i64 96
  call void @llvm.memcpy.p0.p0.i64(ptr noundef nonnull align 8 dereferenceable(40) %40, ptr noundef nonnull align 8 dereferenceable(40) %41, i64 40, i1 false)
  %42 = call noundef i64 @_ZNK4llvm15SmallVectorBaseIjE4sizeEv(ptr noundef nonnull align 8 dereferenceable(16) %0) #18
  %43 = add i64 %42, 1
  call void @_ZN4llvm15SmallVectorBaseIjE8set_sizeEm(ptr noundef nonnull align 8 dereferenceable(16) %0, i64 noundef %43) #18
  %44 = getelementptr inbounds nuw i8, ptr %8, i64 64
  call void @_ZNSt7__cxx1112basic_stringIcSt11char_traitsIcESaIcEED1Ev(ptr noundef nonnull align 8 dereferenceable(32) %44) #18
  %45 = getelementptr inbounds nuw i8, ptr %8, i64 32
  call void @_ZNSt7__cxx1112basic_stringIcSt11char_traitsIcESaIcEED1Ev(ptr noundef nonnull align 8 dereferenceable(32) %45) #18
  br label %46

46:                                               ; preds = %14, %7, %21
  ret void
}